target datalayout = "e-m:e-p270:32:32-p271:32:32-p272:64:64-i64:64-i128:128-f80:128-n8:16:32:64-S128"
target triple = "x86_64-unknown-linux-gnu"

%struct.PCIDevice = type { %struct.DeviceState, i8, i8, ptr, ptr, ptr, ptr, ptr, i32, %struct.PCIReqIDCache, [64 x i8], [7 x %struct.PCIIORegion], %struct.AddressSpace, %struct.MemoryRegion, %struct.MemoryRegion, ptr, ptr, [3 x ptr], i8, i8, i32, i8, i32, ptr, ptr, ptr, ptr, ptr, ptr, %struct.MemoryRegion, %struct.MemoryRegion, %struct.MemoryRegion, ptr, i8, i32, i8, %struct.PCIExpressDevice, ptr, ptr, i32, i8, %struct.MemoryRegion, i32, ptr, ptr, ptr, ptr, ptr, i32 }
%struct.DeviceState = type { %struct.Object, ptr, ptr, i8, i8, i64, ptr, i32, i8, ptr, %struct.NamedGPIOListHead, %struct.NamedClockListHead, %struct.BusStateHead, i32, i32, i32, %struct.ResettableState, ptr, %struct.MemReentrancyGuard }
%struct.Object = type { ptr, ptr, ptr, i32, ptr }
%struct.NamedGPIOListHead = type { ptr }
%struct.NamedClockListHead = type { ptr }
%struct.BusStateHead = type { ptr }
%struct.ResettableState = type { i32, i8, i8 }
%struct.MemReentrancyGuard = type { i8 }
%struct.PCIReqIDCache = type { ptr, i32 }
%struct.PCIIORegion = type { i64, i64, i8, ptr, ptr }
%struct.AddressSpace = type { %struct.rcu_head, ptr, ptr, ptr, i32, i32, ptr, %union.anon, %union.anon.0 }
%struct.rcu_head = type { ptr, ptr }
%union.anon = type { %struct.QTailQLink }
%struct.QTailQLink = type { ptr, ptr }
%union.anon.0 = type { %struct.QTailQLink }
%struct.PCIExpressDevice = type { i8, i8, i8, i16, %struct.PCIEAERLog, i16, i16, i16, %struct.PCIESriovPF, %struct.PCIESriovVF }
%struct.PCIEAERLog = type { i16, i16, ptr }
%struct.PCIESriovPF = type { i16, [7 x i8], ptr, ptr }
%struct.PCIESriovVF = type { ptr, i16 }
%struct.MemoryRegion = type { %struct.Object, i8, i8, i8, i8, i8, i8, i8, i8, i8, i8, ptr, ptr, ptr, ptr, ptr, ptr, i32, i128, i64, ptr, i64, i8, i8, i8, i8, i8, ptr, i64, i32, %union.anon.1, %union.anon.2, %union.anon.3, ptr, i32, ptr, ptr, i8 }
%union.anon.1 = type { %struct.QTailQLink }
%union.anon.2 = type { %struct.QTailQLink }
%union.anon.3 = type { %struct.QTailQLink }
%struct.IVShmemState = type { %struct.PCIDevice, i32, ptr, %struct.CharBackend, i32, i32, i32, %struct.MemoryRegion, ptr, %struct.MemoryRegion, ptr, i32, i32, ptr, i64, i32, i32, ptr }
%struct.CharBackend = type { ptr, ptr, ptr, ptr, ptr, ptr, i32, i32 }
%struct.Peer = type { i32, ptr }
%struct.MSIVector = type { ptr, i32, i8 }

@.str = private unnamed_addr constant [15 x i8] c"ivshmem-common\00", align 1
@.str.1 = private unnamed_addr constant [11 x i8] c"pci-device\00", align 1
@.str.6 = private unnamed_addr constant [106 x i8] c"/home/dtcxzyw/WorkSpace/Projects/compilers/llvm-opt-benchmark/bench/qemu/qemu/include/hw/pci/pci_device.h\00", align 1
@.str.7 = private unnamed_addr constant [26 x i8] c"../qemu/hw/misc/ivshmem.c\00", align 1
@__func__.IVSHMEM_COMMON = private unnamed_addr constant [15 x i8] c"IVSHMEM_COMMON\00", align 1
@kvm_msi_via_irqfd_allowed = external global i8, align 1
@kvm_state = external global ptr, align 8
@__func__.PCI_DEVICE = private unnamed_addr constant [11 x i8] c"PCI_DEVICE\00", align 1
@.str.33 = private unnamed_addr constant [42 x i8] c"ivshmem: msix_set_vector_notifiers failed\00", align 1

; Function Attrs: nounwind sspstrong uwtable
define internal void @ivshmem_remove_kvm_msi_virq(ptr noundef %s, i32 noundef %vector) #0 {
entry:
  %s.addr = alloca ptr, align 8
  %vector.addr = alloca i32, align 4
  store ptr %s, ptr %s.addr, align 8
  store i32 %vector, ptr %vector.addr, align 4
  br label %do.body

do.body:                                          ; preds = %entry
  br label %do.end

do.end:                                           ; preds = %do.body
  %0 = load ptr, ptr %s.addr, align 8
  %msi_vectors = getelementptr inbounds %struct.IVShmemState, ptr %0, i32 0, i32 13
  %1 = load ptr, ptr %msi_vectors, align 16
  %2 = load i32, ptr %vector.addr, align 4
  %idxprom = sext i32 %2 to i64
  %arrayidx = getelementptr %struct.MSIVector, ptr %1, i64 %idxprom
  %pdev = getelementptr inbounds %struct.MSIVector, ptr %arrayidx, i32 0, i32 0
  %3 = load ptr, ptr %pdev, align 8
  %cmp = icmp eq ptr %3, null
  br i1 %cmp, label %if.then, label %if.end

if.then:                                          ; preds = %do.end
  br label %return

if.end:                                           ; preds = %do.end
  %4 = load ptr, ptr @kvm_state, align 8
  %5 = load ptr, ptr %s.addr, align 8
  %msi_vectors1 = getelementptr inbounds %struct.IVShmemState, ptr %5, i32 0, i32 13
  %6 = load ptr, ptr %msi_vectors1, align 16
  %7 = load i32, ptr %vector.addr, align 4
  %idxprom2 = sext i32 %7 to i64
  %arrayidx3 = getelementptr %struct.MSIVector, ptr %6, i64 %idxprom2
  %virq = getelementptr inbounds %struct.MSIVector, ptr %arrayidx3, i32 0, i32 1
  %8 = load i32, ptr %virq, align 8
  call void @kvm_irqchip_release_virq(ptr noundef %4, i32 noundef %8)
  %9 = load ptr, ptr %s.addr, align 8
  %msi_vectors4 = getelementptr inbounds %struct.IVShmemState, ptr %9, i32 0, i32 13
  %10 = load ptr, ptr %msi_vectors4, align 16
  %11 = load i32, ptr %vector.addr, align 4
  %idxprom5 = sext i32 %11 to i64
  %arrayidx6 = getelementptr %struct.MSIVector, ptr %10, i64 %idxprom5
  %pdev7 = getelementptr inbounds %struct.MSIVector, ptr %arrayidx6, i32 0, i32 0
  store ptr null, ptr %pdev7, align 8
  br label %return

return:                                           ; preds = %if.end, %if.then
  ret void
}

; Function Attrs: nounwind sspstrong uwtable
define internal ptr @PCI_DEVICE(ptr noundef %obj) #0 {
entry:
  %obj.addr = alloca ptr, align 8
  store ptr %obj, ptr %obj.addr, align 8
  %0 = load ptr, ptr %obj.addr, align 8
  %call = call ptr @object_dynamic_cast_assert(ptr noundef %0, ptr noundef @.str.1, ptr noundef @.str.6, i32 noundef 10, ptr noundef @__func__.PCI_DEVICE)
  ret ptr %call
}

; Function Attrs: nounwind sspstrong uwtable
define internal void @ivshmem_enable_irqfd(ptr noundef %s) #0 {
entry:
  %s.addr = alloca ptr, align 8
  %pdev = alloca ptr, align 8
  %i = alloca i32, align 4
  %err = alloca ptr, align 8
  store ptr %s, ptr %s.addr, align 8
  %0 = load ptr, ptr %s.addr, align 8
  %call = call ptr @PCI_DEVICE(ptr noundef %0)
  store ptr %call, ptr %pdev, align 8
  store i32 0, ptr %i, align 4
  br label %for.cond

for.cond:                                         ; preds = %for.inc, %entry
  %1 = load i32, ptr %i, align 4
  %2 = load ptr, ptr %s.addr, align 8
  %peers = getelementptr inbounds %struct.IVShmemState, ptr %2, i32 0, i32 10
  %3 = load ptr, ptr %peers, align 16
  %4 = load ptr, ptr %s.addr, align 8
  %vm_id = getelementptr inbounds %struct.IVShmemState, ptr %4, i32 0, i32 6
  %5 = load i32, ptr %vm_id, align 16
  %idxprom = sext i32 %5 to i64
  %arrayidx = getelementptr %struct.Peer, ptr %3, i64 %idxprom
  %nb_eventfds = getelementptr inbounds %struct.Peer, ptr %arrayidx, i32 0, i32 0
  %6 = load i32, ptr %nb_eventfds, align 8
  %cmp = icmp slt i32 %1, %6
  br i1 %cmp, label %for.body, label %for.end

for.body:                                         ; preds = %for.cond
  store ptr null, ptr %err, align 8
  %7 = load ptr, ptr %s.addr, align 8
  %8 = load i32, ptr %i, align 4
  call void @ivshmem_add_kvm_msi_virq(ptr noundef %7, i32 noundef %8, ptr noundef %err)
  %9 = load ptr, ptr %err, align 8
  %tobool = icmp ne ptr %9, null
  br i1 %tobool, label %if.then, label %if.end

if.then:                                          ; preds = %for.body
  %10 = load ptr, ptr %err, align 8
  call void @error_report_err(ptr noundef %10)
  br label %undo

if.end:                                           ; preds = %for.body
  br label %for.inc

for.inc:                                          ; preds = %if.end
  %11 = load i32, ptr %i, align 4
  %inc = add i32 %11, 1
  store i32 %inc, ptr %i, align 4
  br label %for.cond, !llvm.loop !13

for.end:                                          ; preds = %for.cond
  %12 = load ptr, ptr %pdev, align 8
  %call1 = call i32 @msix_set_vector_notifiers(ptr noundef %12, ptr noundef @ivshmem_vector_unmask, ptr noundef @ivshmem_vector_mask, ptr noundef @ivshmem_vector_poll)
  %tobool2 = icmp ne i32 %call1, 0
  br i1 %tobool2, label %if.then3, label %if.end4

if.then3:                                         ; preds = %for.end
  call void (ptr, ...) @error_report(ptr noundef @.str.33)
  br label %undo

if.end4:                                          ; preds = %for.end
  br label %while.end

undo:                                             ; preds = %if.then3, %if.then
  br label %while.cond

while.cond:                                       ; preds = %while.body, %undo
  %13 = load i32, ptr %i, align 4
  %dec = add i32 %13, -1
  store i32 %dec, ptr %i, align 4
  %cmp5 = icmp sge i32 %dec, 0
  br i1 %cmp5, label %while.body, label %while.end

while.body:                                       ; preds = %while.cond
  %14 = load ptr, ptr %s.addr, align 8
  %15 = load i32, ptr %i, align 4
  call void @ivshmem_remove_kvm_msi_virq(ptr noundef %14, i32 noundef %15)
  br label %while.cond, !llvm.loop !14

while.end:                                        ; preds = %while.cond, %if.end4
  ret void
}

; Function Attrs: nounwind sspstrong uwtable
define internal ptr @IVSHMEM_COMMON(ptr noundef %obj) #0 {
entry:
  %obj.addr = alloca ptr, align 8
  store ptr %obj, ptr %obj.addr, align 8
  %0 = load ptr, ptr %obj.addr, align 8
  %call = call ptr @object_dynamic_cast_assert(ptr noundef %0, ptr noundef @.str, ptr noundef @.str.7, i32 noundef 63, ptr noundef @__func__.IVSHMEM_COMMON)
  ret ptr %call
}

; Function Attrs: nounwind sspstrong uwtable
define internal void @ivshmem_write_config(ptr noundef %pdev, i32 noundef %address, i32 noundef %val, i32 noundef %len) #0 {
entry:
  %pdev.addr = alloca ptr, align 8
  %address.addr = alloca i32, align 4
  %val.addr = alloca i32, align 4
  %len.addr = alloca i32, align 4
  %s = alloca ptr, align 8
  %is_enabled = alloca i32, align 4
  %was_enabled = alloca i32, align 4
  store ptr %pdev, ptr %pdev.addr, align 8
  store i32 %address, ptr %address.addr, align 4
  store i32 %val, ptr %val.addr, align 4
  store i32 %len, ptr %len.addr, align 4
  %0 = load ptr, ptr %pdev.addr, align 8
  %call = call ptr @IVSHMEM_COMMON(ptr noundef %0)
  store ptr %call, ptr %s, align 8
  %1 = load ptr, ptr %pdev.addr, align 8
  %call1 = call i32 @msix_enabled(ptr noundef %1)
  store i32 %call1, ptr %was_enabled, align 4
  %2 = load ptr, ptr %pdev.addr, align 8
  %3 = load i32, ptr %address.addr, align 4
  %4 = load i32, ptr %val.addr, align 4
  %5 = load i32, ptr %len.addr, align 4
  call void @pci_default_write_config(ptr noundef %2, i32 noundef %3, i32 noundef %4, i32 noundef %5)
  %6 = load ptr, ptr %pdev.addr, align 8
  %call2 = call i32 @msix_enabled(ptr noundef %6)
  store i32 %call2, ptr %is_enabled, align 4
  %7 = load i8, ptr @kvm_msi_via_irqfd_allowed, align 1
  %tobool = trunc i8 %7 to i1
  br i1 %tobool, label %if.then, label %if.end11

if.then:                                          ; preds = %entry
  %8 = load i32, ptr %was_enabled, align 4
  %tobool3 = icmp ne i32 %8, 0
  br i1 %tobool3, label %if.else, label %land.lhs.true

land.lhs.true:                                    ; preds = %if.then
  %9 = load i32, ptr %is_enabled, align 4
  %tobool4 = icmp ne i32 %9, 0
  br i1 %tobool4, label %if.then5, label %if.else

if.then5:                                         ; preds = %land.lhs.true
  %10 = load ptr, ptr %s, align 8
  call void @ivshmem_enable_irqfd(ptr noundef %10)
  br label %if.end10

if.else:                                          ; preds = %land.lhs.true, %if.then
  %11 = load i32, ptr %was_enabled, align 4
  %tobool6 = icmp ne i32 %11, 0
  br i1 %tobool6, label %land.lhs.true7, label %if.end

land.lhs.true7:                                   ; preds = %if.else
  %12 = load i32, ptr %is_enabled, align 4
  %tobool8 = icmp ne i32 %12, 0
  br i1 %tobool8, label %if.end, label %if.then9

if.then9:                                         ; preds = %land.lhs.true7
  %13 = load ptr, ptr %s, align 8
  call void @ivshmem_disable_irqfd(ptr noundef %13)
  br label %if.end

if.end:                                           ; preds = %if.then9, %land.lhs.true7, %if.else
  br label %if.end10

if.end10:                                         ; preds = %if.end, %if.then5
  br label %if.end11

if.end11:                                         ; preds = %if.end10, %entry
  ret void
}