; Function Attrs: nounwind sspstrong uwtable
define internal void @ivshmem_write_config(ptr noundef %pdev, i32 noundef %address, i32 noundef %val, i32 noundef %len) #0 {
entry:
  %err.i = alloca ptr, align 8
  %call.i = tail call ptr @object_dynamic_cast_assert(ptr noundef %pdev, ptr noundef nonnull @.str, ptr noundef nonnull @.str.7, i32 noundef 63, ptr noundef nonnull @__func__.IVSHMEM_COMMON) #11
  %call1 = tail call i32 @msix_enabled(ptr noundef %pdev) #11
  tail call void @pci_default_write_config(ptr noundef %pdev, i32 noundef %address, i32 noundef %val, i32 noundef %len) #11
  %call2 = tail call i32 @msix_enabled(ptr noundef %pdev) #11
  %0 = load i8, ptr @kvm_msi_via_irqfd_allowed, align 1
  %tobool = trunc i8 %0 to i1
  br i1 %tobool, label %if.then, label %if.end11

if.then:                                          ; preds = %entry
  %tobool3 = icmp eq i32 %call1, 0
  %tobool4 = icmp ne i32 %call2, 0
  %or.cond = select i1 %tobool3, i1 %tobool4, i1 false
  br i1 %or.cond, label %if.then5, label %if.else

if.then5:                                         ; preds = %if.then
  call void @llvm.lifetime.start.p0(i64 8, ptr nonnull %err.i)
  %call.i.i = tail call ptr @object_dynamic_cast_assert(ptr noundef %call.i, ptr noundef nonnull @.str.1, ptr noundef nonnull @.str.6, i32 noundef 10, ptr noundef nonnull @__func__.PCI_DEVICE) #11
  %peers.i = getelementptr inbounds nuw i8, ptr %call.i, i64 3264
  %vm_id.i = getelementptr inbounds nuw i8, ptr %call.i, i64 2688
  %1 = load ptr, ptr %peers.i, align 16
  %2 = load i32, ptr %vm_id.i, align 16
  %idxprom11.i = sext i32 %2 to i64
  %arrayidx12.i = getelementptr %struct.Peer, ptr %1, i64 %idxprom11.i
  %3 = load i32, ptr %arrayidx12.i, align 8
  %cmp13.i = icmp sgt i32 %3, 0
  br i1 %cmp13.i, label %for.body.i, label %for.end.i

for.body.i:                                       ; preds = %if.then5, %for.inc.i
  %i.014.i = phi i32 [ %inc.i, %for.inc.i ], [ 0, %if.then5 ]
  store ptr null, ptr %err.i, align 8
  call fastcc void @ivshmem_add_kvm_msi_virq(ptr noundef nonnull %call.i, i32 noundef %i.014.i, ptr noundef %err.i)
  %4 = load ptr, ptr %err.i, align 8
  %tobool.not.i = icmp eq ptr %4, null
  br i1 %tobool.not.i, label %for.inc.i, label %if.then.i

if.then.i:                                        ; preds = %for.body.i
  call void @error_report_err(ptr noundef nonnull %4) #11
  br label %undo.i

for.inc.i:                                        ; preds = %for.body.i
  %inc.i = add nuw nsw i32 %i.014.i, 1
  %5 = load ptr, ptr %peers.i, align 16
  %6 = load i32, ptr %vm_id.i, align 16
  %idxprom.i = sext i32 %6 to i64
  %arrayidx.i = getelementptr %struct.Peer, ptr %5, i64 %idxprom.i
  %7 = load i32, ptr %arrayidx.i, align 8
  %cmp.i = icmp slt i32 %inc.i, %7
  br i1 %cmp.i, label %for.body.i, label %for.end.i, !llvm.loop !11

for.end.i:                                        ; preds = %for.inc.i, %if.then5
  %i.0.lcssa.i = phi i32 [ 0, %if.then5 ], [ %inc.i, %for.inc.i ]
  %call1.i = call i32 @msix_set_vector_notifiers(ptr noundef %call.i.i, ptr noundef nonnull @ivshmem_vector_unmask, ptr noundef nonnull @ivshmem_vector_mask, ptr noundef nonnull @ivshmem_vector_poll) #11
  %tobool2.not.i = icmp eq i32 %call1.i, 0
  br i1 %tobool2.not.i, label %ivshmem_enable_irqfd.exit, label %if.then3.i

if.then3.i:                                       ; preds = %for.end.i
  call void (ptr, ...) @error_report(ptr noundef nonnull @.str.33) #11
  br label %undo.i

undo.i:                                           ; preds = %if.then3.i, %if.then.i
  %i.010.i = phi i32 [ %i.0.lcssa.i, %if.then3.i ], [ %i.014.i, %if.then.i ]
  %dec15.i = add i32 %i.010.i, -1
  %cmp516.i = icmp sgt i32 %dec15.i, -1
  br i1 %cmp516.i, label %while.body.lr.ph.i, label %ivshmem_enable_irqfd.exit

while.body.lr.ph.i:                               ; preds = %undo.i
  %msi_vectors.i.i = getelementptr inbounds nuw i8, ptr %call.i, i64 3280
  %8 = zext nneg i32 %dec15.i to i64
  br label %while.body.i

while.body.i:                                     ; preds = %ivshmem_remove_kvm_msi_virq.exit.i, %while.body.lr.ph.i
  %indvars.iv.i = phi i64 [ %8, %while.body.lr.ph.i ], [ %indvars.iv.next.i, %ivshmem_remove_kvm_msi_virq.exit.i ]
  %9 = load ptr, ptr %msi_vectors.i.i, align 16
  %arrayidx.i.i = getelementptr %struct.MSIVector, ptr %9, i64 %indvars.iv.i
  %10 = load ptr, ptr %arrayidx.i.i, align 8
  %cmp.i.i = icmp eq ptr %10, null
  br i1 %cmp.i.i, label %ivshmem_remove_kvm_msi_virq.exit.i, label %if.end.i.i

if.end.i.i:                                       ; preds = %while.body.i
  %11 = load ptr, ptr @kvm_state, align 8
  %virq.i.i = getelementptr inbounds nuw i8, ptr %arrayidx.i.i, i64 8
  %12 = load i32, ptr %virq.i.i, align 8
  call void @kvm_irqchip_release_virq(ptr noundef %11, i32 noundef %12) #11
  %13 = load ptr, ptr %msi_vectors.i.i, align 16
  %arrayidx6.i.i = getelementptr %struct.MSIVector, ptr %13, i64 %indvars.iv.i
  store ptr null, ptr %arrayidx6.i.i, align 8
  br label %ivshmem_remove_kvm_msi_virq.exit.i

ivshmem_remove_kvm_msi_virq.exit.i:               ; preds = %if.end.i.i, %while.body.i
  %indvars.iv.next.i = add nsw i64 %indvars.iv.i, -1
  %cmp5.i = icmp sgt i64 %indvars.iv.i, 0
  br i1 %cmp5.i, label %while.body.i, label %ivshmem_enable_irqfd.exit, !llvm.loop !12

ivshmem_enable_irqfd.exit:                        ; preds = %ivshmem_remove_kvm_msi_virq.exit.i, %for.end.i, %undo.i
  call void @llvm.lifetime.end.p0(i64 8, ptr nonnull %err.i)
  br label %if.end11

if.else:                                          ; preds = %if.then
  %or.cond1 = select i1 %tobool3, i1 true, i1 %tobool4
  br i1 %or.cond1, label %if.end11, label %if.then9

if.then9:                                         ; preds = %if.else
  tail call fastcc void @ivshmem_disable_irqfd(ptr noundef %call.i)
  br label %if.end11

if.end11:                                         ; preds = %ivshmem_enable_irqfd.exit, %if.then9, %if.else, %entry
  ret void
}